target datalayout = "e-m:e-p270:32:32-p271:32:32-p272:64:64-i64:64-i128:128-f80:128-n8:16:32:64-S128"
target triple = "x86_64-pc-linux-gnu"

%struct.reassembly_table = type { ptr, ptr, ptr, ptr, ptr }
%struct.reassembly_table_functions = type { ptr, ptr, ptr, ptr, ptr, ptr }

@rtse_handle = internal global ptr null, align 8
@.str.1 = private unnamed_addr constant [9 x i8] c"rtse.oid\00", align 1
@.str.92 = private unnamed_addr constant [36 x i8] c"X.228 OSI Reliable Transfer Service\00", align 1
@.str.93 = private unnamed_addr constant [5 x i8] c"RTSE\00", align 1
@.str.94 = private unnamed_addr constant [5 x i8] c"rtse\00", align 1
@proto_rtse = internal global i32 0, align 4
@rtse_reassembly_table = internal global %struct.reassembly_table zeroinitializer, align 8
@addresses_reassembly_table_functions = external constant %struct.reassembly_table_functions, align 8
@.str.95 = private unnamed_addr constant [4 x i8] c"OSI\00", align 1
@.str.96 = private unnamed_addr constant [11 x i8] c"reassemble\00", align 1
@.str.97 = private unnamed_addr constant [36 x i8] c"Reassemble segmented RTSE datagrams\00", align 1
@.str.98 = private unnamed_addr constant [175 x i8] c"Whether segmented RTSE datagrams should be reassembled. To use this option, you must also enable \22Allow subdissectors to reassemble TCP streams\22 in the TCP protocol settings.\00", align 1
@rtse_reassemble = internal global i8 1, align 1
@.str.99 = private unnamed_addr constant [20 x i8] c"RTSE OID Dissectors\00", align 1
@rtse_oid_dissector_table = internal global ptr null, align 8

; Function Attrs: null_pointer_is_valid sspstrong uwtable
define hidden void @proto_register_rtse() #0 {
  %1 = alloca ptr, align 8
  %2 = alloca ptr, align 8
  call void @llvm.lifetime.start.p0(i64 8, ptr %1) #4
  call void @llvm.lifetime.start.p0(i64 8, ptr %2) #4
  %3 = call i32 @proto_register_protocol(ptr noundef @.str.92, ptr noundef @.str.93, ptr noundef @.str.94)
  store i32 %3, ptr @proto_rtse, align 4
  %4 = load i32, ptr @proto_rtse, align 4
  %5 = call ptr @register_dissector(ptr noundef @.str.94, ptr noundef @dissect_rtse, i32 noundef %4)
  store ptr %5, ptr @rtse_handle, align 8
  %6 = load i32, ptr @proto_rtse, align 4
  call void @proto_register_field_array(i32 noundef %6, ptr noundef @proto_register_rtse.hf, i32 noundef 35)
  call void @proto_register_subtree_array(ptr noundef @proto_register_rtse.ett, i32 noundef 12)
  %7 = load i32, ptr @proto_rtse, align 4
  %8 = call ptr @expert_register_protocol(i32 noundef %7)
  store ptr %8, ptr %1, align 8
  %9 = load ptr, ptr %1, align 8
  call void @expert_register_field_array(ptr noundef %9, ptr noundef @proto_register_rtse.ei, i32 noundef 3)
  call void @reassembly_table_register(ptr noundef @rtse_reassembly_table, ptr noundef @addresses_reassembly_table_functions)
  %10 = load i32, ptr @proto_rtse, align 4
  %11 = call ptr @prefs_register_protocol_subtree(ptr noundef @.str.95, i32 noundef %10, ptr noundef null)
  store ptr %11, ptr %2, align 8
  %12 = load ptr, ptr %2, align 8
  call void @prefs_register_bool_preference(ptr noundef %12, ptr noundef @.str.96, ptr noundef @.str.97, ptr noundef @.str.98, ptr noundef @rtse_reassemble)
  %13 = load i32, ptr @proto_rtse, align 4
  %14 = call ptr @register_dissector_table(ptr noundef @.str.1, ptr noundef @.str.99, i32 noundef %13, i32 noundef 26, i32 noundef 0)
  store ptr %14, ptr @rtse_oid_dissector_table, align 8
  call void @llvm.lifetime.end.p0(i64 8, ptr %2) #4
  call void @llvm.lifetime.end.p0(i64 8, ptr %1) #4
  ret void
}