; Function Attrs: null_pointer_is_valid sspstrong uwtable
define hidden void @proto_register_rtse() local_unnamed_addr #0 {
  %1 = tail call i32 @proto_register_protocol(ptr noundef nonnull @.str.92, ptr noundef nonnull @.str.93, ptr noundef nonnull @.str.94)
  store i32 %1, ptr @proto_rtse, align 4
  %2 = tail call ptr @register_dissector(ptr noundef nonnull @.str.94, ptr noundef nonnull @dissect_rtse, i32 noundef %1)
  store ptr %2, ptr @rtse_handle, align 8
  %3 = load i32, ptr @proto_rtse, align 4
  tail call void @proto_register_field_array(i32 noundef %3, ptr noundef nonnull @proto_register_rtse.hf, i32 noundef 35)
  tail call void @proto_register_subtree_array(ptr noundef nonnull @proto_register_rtse.ett, i32 noundef 12)
  %4 = load i32, ptr @proto_rtse, align 4
  %5 = tail call ptr @expert_register_protocol(i32 noundef %4)
  tail call void @expert_register_field_array(ptr noundef %5, ptr noundef nonnull @proto_register_rtse.ei, i32 noundef 3)
  tail call void @reassembly_table_register(ptr noundef nonnull @rtse_reassembly_table, ptr noundef nonnull @addresses_reassembly_table_functions)
  %6 = load i32, ptr @proto_rtse, align 4
  %7 = tail call ptr @prefs_register_protocol_subtree(ptr noundef nonnull @.str.95, i32 noundef %6, ptr noundef null)
  tail call void @prefs_register_bool_preference(ptr noundef %7, ptr noundef nonnull @.str.96, ptr noundef nonnull @.str.97, ptr noundef nonnull @.str.98, ptr noundef nonnull @rtse_reassemble)
  %8 = load i32, ptr @proto_rtse, align 4
  %9 = tail call ptr @register_dissector_table(ptr noundef nonnull @.str.1, ptr noundef nonnull @.str.99, i32 noundef %8, i32 noundef 26, i32 noundef 0)
  store ptr %9, ptr @rtse_oid_dissector_table, align 8
  ret void
}